; Function Attrs: nofree norecurse nosync nounwind memory(read, argmem: readwrite, inaccessiblemem: none) uwtable
define void @SUNDlsMat_denseGETRS(ptr noundef readonly captures(none) %0, i64 noundef %1, ptr noundef readonly captures(none) %2, ptr noundef captures(none) %3) local_unnamed_addr #1 {
  %5 = icmp sgt i64 %1, 0
  br i1 %5, label %.lr.ph, label %._crit_edge

.preheader55:                                     ; preds = %14
  %6 = add nsw i64 %1, -1
  %.not68 = icmp eq i64 %1, 1
  br i1 %.not68, label %._crit_edge, label %.lr.ph58

.lr.ph:                                           ; preds = %4, %14
  %.05056 = phi i64 [ %15, %14 ], [ 0, %4 ]
  %7 = getelementptr inbounds nuw i64, ptr %2, i64 %.05056
  %8 = load i64, ptr %7, align 8, !tbaa !17
  %.not = icmp eq i64 %8, %.05056
  br i1 %.not, label %14, label %9

9:                                                ; preds = %.lr.ph
  %10 = getelementptr inbounds nuw double, ptr %3, i64 %.05056
  %11 = load double, ptr %10, align 8, !tbaa !15
  %12 = getelementptr inbounds double, ptr %3, i64 %8
  %13 = load double, ptr %12, align 8, !tbaa !15
  store double %13, ptr %10, align 8, !tbaa !15
  store double %11, ptr %12, align 8, !tbaa !15
  br label %14

14:                                               ; preds = %.lr.ph, %9
  %15 = add nuw nsw i64 %.05056, 1
  %exitcond.not = icmp eq i64 %15, %1
  br i1 %exitcond.not, label %.preheader55, label %.lr.ph

.loopexit:                                        ; preds = %20
  %exitcond65.not = icmp eq i64 %18, %6
  br i1 %exitcond65.not, label %.lr.ph63, label %.lr.ph58

.lr.ph58:                                         ; preds = %.preheader55, %.loopexit
  %.15159 = phi i64 [ %18, %.loopexit ], [ 0, %.preheader55 ]
  %16 = getelementptr inbounds nuw ptr, ptr %0, i64 %.15159
  %17 = load ptr, ptr %16, align 8, !tbaa !14
  %18 = add nuw nsw i64 %.15159, 1
  %19 = getelementptr inbounds nuw double, ptr %3, i64 %.15159
  br label %20

20:                                               ; preds = %.lr.ph58, %20
  %.057 = phi i64 [ %18, %.lr.ph58 ], [ %28, %20 ]
  %21 = getelementptr inbounds nuw double, ptr %17, i64 %.057
  %22 = load double, ptr %21, align 8, !tbaa !15
  %23 = load double, ptr %19, align 8, !tbaa !15
  %24 = getelementptr inbounds nuw double, ptr %3, i64 %.057
  %25 = load double, ptr %24, align 8, !tbaa !15
  %26 = fneg double %22
  %27 = tail call double @llvm.fmuladd.f64(double %26, double %23, double %25)
  store double %27, ptr %24, align 8, !tbaa !15
  %28 = add nuw nsw i64 %.057, 1
  %exitcond64.not = icmp eq i64 %28, %1
  br i1 %exitcond64.not, label %.loopexit, label %20

.lr.ph63:                                         ; preds = %.loopexit, %45
  %.262 = phi i64 [ %46, %45 ], [ %6, %.loopexit ]
  %29 = getelementptr inbounds nuw ptr, ptr %0, i64 %.262
  %30 = load ptr, ptr %29, align 8, !tbaa !14
  %31 = getelementptr inbounds nuw double, ptr %30, i64 %.262
  %32 = load double, ptr %31, align 8, !tbaa !15
  %33 = getelementptr inbounds nuw double, ptr %3, i64 %.262
  %34 = load double, ptr %33, align 8, !tbaa !15
  %35 = fdiv double %34, %32
  store double %35, ptr %33, align 8, !tbaa !15
  br label %36

36:                                               ; preds = %.lr.ph63, %36
  %.161 = phi i64 [ 0, %.lr.ph63 ], [ %44, %36 ]
  %37 = getelementptr inbounds nuw double, ptr %30, i64 %.161
  %38 = load double, ptr %37, align 8, !tbaa !15
  %39 = load double, ptr %33, align 8, !tbaa !15
  %40 = getelementptr inbounds nuw double, ptr %3, i64 %.161
  %41 = load double, ptr %40, align 8, !tbaa !15
  %42 = fneg double %38
  %43 = tail call double @llvm.fmuladd.f64(double %42, double %39, double %41)
  store double %43, ptr %40, align 8, !tbaa !15
  %44 = add nuw nsw i64 %.161, 1
  %exitcond66.not = icmp eq i64 %44, %.262
  br i1 %exitcond66.not, label %45, label %36

45:                                               ; preds = %36
  %46 = add nsw i64 %.262, -1
  %47 = icmp sgt i64 %.262, 1
  br i1 %47, label %.lr.ph63, label %._crit_edge

._crit_edge:                                      ; preds = %45, %4, %.preheader55
  %48 = load ptr, ptr %0, align 8, !tbaa !14
  %49 = load double, ptr %48, align 8, !tbaa !15
  %50 = load double, ptr %3, align 8, !tbaa !15
  %51 = fdiv double %50, %49
  store double %51, ptr %3, align 8, !tbaa !15
  ret void
}